; Function Attrs: mustprogress uwtable
define dso_local void @_ZNK29cmLocalUnixMakefileGenerator321GetLinkDependencyFileEP17cmGeneratorTargetRKNSt7__cxx1112basic_stringIcSt11char_traitsIcESaIcEEE(ptr dead_on_unwind noalias writable sret(%"class.std::__cxx11::basic_string") align 8 %0, ptr nocapture nonnull readnone align 8 %1, ptr noundef nonnull %2, ptr nocapture nonnull readnone align 8 %3) unnamed_addr #3 align 2 personality ptr @__gxx_personality_v0 {
  %5 = alloca [2 x %"struct.std::pair.1037"], align 8
  %6 = alloca %"class.std::__cxx11::basic_string", align 8
  call void @_ZNK17cmGeneratorTarget19GetSupportDirectoryB5cxx11Ev(ptr dead_on_unwind nonnull writable sret(%"class.std::__cxx11::basic_string") align 8 %6, ptr noundef nonnull align 8 dereferenceable(2728) %2)
  call void @llvm.lifetime.start.p0(i64 48, ptr nonnull %5)
  call void @llvm.experimental.noalias.scope.decl(metadata !62)
  %7 = call { i64, ptr } @_ZNKSt7__cxx1112basic_stringIcSt11char_traitsIcESaIcEEcvSt17basic_string_viewIcS2_EEv(ptr noundef nonnull align 8 dereferenceable(32) %6) #20, !noalias !65
  %8 = extractvalue { i64, ptr } %7, 0
  %9 = extractvalue { i64, ptr } %7, 1
  store i64 %8, ptr %5, align 8, !alias.scope !62, !noalias !68
  %.sroa.2.0..sroa_idx.i.i = getelementptr inbounds i8, ptr %5, i64 8
  store ptr %9, ptr %.sroa.2.0..sroa_idx.i.i, align 8, !alias.scope !62, !noalias !68
  %10 = getelementptr inbounds i8, ptr %5, i64 16
  store ptr %6, ptr %10, align 8, !alias.scope !62, !noalias !68
  %11 = getelementptr inbounds i8, ptr %5, i64 24
  store i64 7, ptr %11, align 8, !alias.scope !69, !noalias !68
  %.sroa.2.0..sroa_idx.i6.i = getelementptr inbounds i8, ptr %5, i64 32
  store ptr @.str.9, ptr %.sroa.2.0..sroa_idx.i6.i, align 8, !alias.scope !69, !noalias !68
  %12 = getelementptr inbounds i8, ptr %5, i64 40
  store ptr null, ptr %12, align 8, !alias.scope !69, !noalias !68
  invoke void @_Z10cmCatViewsSt16initializer_listISt4pairISt17basic_string_viewIcSt11char_traitsIcEEPNSt7__cxx1112basic_stringIcS3_SaIcEEEEE(ptr dead_on_unwind writable sret(%"class.std::__cxx11::basic_string") align 8 %0, ptr nonnull %5, i64 2)
          to label %13 unwind label %14

13:                                               ; preds = %4
  call void @llvm.lifetime.end.p0(i64 48, ptr nonnull %5)
  call void @_ZNSt7__cxx1112basic_stringIcSt11char_traitsIcESaIcEED1Ev(ptr noundef nonnull align 8 dereferenceable(32) %6) #20
  ret void

14:                                               ; preds = %4
  %15 = landingpad { ptr, i32 }
          cleanup
  call void @_ZNSt7__cxx1112basic_stringIcSt11char_traitsIcESaIcEED1Ev(ptr noundef nonnull align 8 dereferenceable(32) %6) #20
  resume { ptr, i32 } %15
}